target datalayout = "e-m:e-p270:32:32-p271:32:32-p272:64:64-i64:64-i128:128-f80:128-n8:16:32:64-S128"
target triple = "x86_64-pc-linux-gnu"

%struct.VariableStatData = type { ptr, ptr, ptr, ptr, i32, i32, i32, i8, i8 }
%struct.RelOptInfo = type { i32, i32, ptr, double, i8, i8, i8, ptr, ptr, ptr, ptr, ptr, ptr, ptr, ptr, ptr, ptr, i32, i32, i32, i16, i16, ptr, ptr, ptr, ptr, ptr, ptr, ptr, ptr, i32, double, double, ptr, ptr, ptr, i32, i32, i32, i32, i8, ptr, ptr, ptr, ptr, ptr, %struct.QualCost, i32, ptr, i8, i8, ptr, ptr, ptr, ptr, i32, ptr, i8, ptr, ptr, ptr, ptr, ptr, ptr }
%struct.QualCost = type { double, double }
%struct.List = type { i32, i32, i32, ptr, [0 x %union.ListCell] }
%union.ListCell = type { ptr }
%struct.SpecialJoinInfo = type { i32, ptr, ptr, ptr, ptr, i32, i32, ptr, ptr, ptr, ptr, i8, i8, i8, ptr, ptr }

@.str.1 = private unnamed_addr constant [11 x i8] c"selfuncs.c\00", align 1
@.str.4 = private unnamed_addr constant [40 x i8] c"join operator should take two arguments\00", align 1
@__func__.get_join_variables = private unnamed_addr constant [19 x i8] c"get_join_variables\00", align 1

; Function Attrs: inlinehint nounwind uwtable
define internal ptr @list_nth_cell(ptr noundef %0, i32 noundef %1) #1 {
  %3 = alloca ptr, align 8
  %4 = alloca i32, align 4
  store ptr %0, ptr %3, align 8
  store i32 %1, ptr %4, align 4
  %5 = load ptr, ptr %3, align 8
  %6 = getelementptr inbounds nuw %struct.List, ptr %5, i32 0, i32 3
  %7 = load ptr, ptr %6, align 8
  %8 = load i32, ptr %4, align 4
  %9 = sext i32 %8 to i64
  %10 = getelementptr inbounds %union.ListCell, ptr %7, i64 %9
  ret ptr %10
}

; Function Attrs: inlinehint nounwind uwtable
define internal i32 @list_length(ptr noundef %0) #1 {
  %2 = alloca ptr, align 8
  store ptr %0, ptr %2, align 8
  %3 = load ptr, ptr %2, align 8
  %4 = icmp ne ptr %3, null
  br i1 %4, label %5, label %9

5:                                                ; preds = %1
  %6 = load ptr, ptr %2, align 8
  %7 = getelementptr inbounds nuw %struct.List, ptr %6, i32 0, i32 1
  %8 = load i32, ptr %7, align 4
  br label %10

9:                                                ; preds = %1
  br label %10

10:                                               ; preds = %9, %5
  %11 = phi i32 [ %8, %5 ], [ 0, %9 ]
  ret i32 %11
}

; Function Attrs: nounwind uwtable
define dso_local void @get_join_variables(ptr noundef %0, ptr noundef %1, ptr noundef %2, ptr noundef %3, ptr noundef %4, ptr noundef %5) #0 {
  %7 = alloca ptr, align 8
  %8 = alloca ptr, align 8
  %9 = alloca ptr, align 8
  %10 = alloca ptr, align 8
  %11 = alloca ptr, align 8
  %12 = alloca ptr, align 8
  %13 = alloca ptr, align 8
  %14 = alloca ptr, align 8
  store ptr %0, ptr %7, align 8
  store ptr %1, ptr %8, align 8
  store ptr %2, ptr %9, align 8
  store ptr %3, ptr %10, align 8
  store ptr %4, ptr %11, align 8
  store ptr %5, ptr %12, align 8
  call void @llvm.lifetime.start.p0(i64 8, ptr %13) #10
  call void @llvm.lifetime.start.p0(i64 8, ptr %14) #10
  %15 = load ptr, ptr %8, align 8
  %16 = call i32 @list_length(ptr noundef %15)
  %17 = icmp ne i32 %16, 2
  br i1 %17, label %18, label %29

18:                                               ; preds = %6
  br label %19

19:                                               ; preds = %18
  br i1 true, label %20, label %22

20:                                               ; preds = %19
  %21 = call zeroext i1 @errstart_cold(i32 noundef 21, ptr noundef null) #11
  br i1 %21, label %24, label %26

22:                                               ; preds = %19
  %23 = call zeroext i1 @errstart(i32 noundef 21, ptr noundef null)
  br i1 %23, label %24, label %26

24:                                               ; preds = %22, %20
  %25 = call i32 (ptr, ...) @errmsg_internal(ptr noundef @.str.4)
  call void @errfinish(ptr noundef @.str.1, i32 noundef 4972, ptr noundef @__func__.get_join_variables)
  br label %26

26:                                               ; preds = %24, %22, %20
  unreachable

27:                                               ; No predecessors!
  br label %28

28:                                               ; preds = %27
  br label %29

29:                                               ; preds = %28, %6
  %30 = load ptr, ptr %8, align 8
  %31 = call ptr @list_nth_cell(ptr noundef %30, i32 noundef 0)
  %32 = load ptr, ptr %31, align 8
  store ptr %32, ptr %13, align 8
  %33 = load ptr, ptr %8, align 8
  %34 = call ptr @list_nth_cell(ptr noundef %33, i32 noundef 1)
  %35 = load ptr, ptr %34, align 8
  store ptr %35, ptr %14, align 8
  %36 = load ptr, ptr %7, align 8
  %37 = load ptr, ptr %13, align 8
  %38 = load ptr, ptr %10, align 8
  call void @examine_variable(ptr noundef %36, ptr noundef %37, i32 noundef 0, ptr noundef %38)
  %39 = load ptr, ptr %7, align 8
  %40 = load ptr, ptr %14, align 8
  %41 = load ptr, ptr %11, align 8
  call void @examine_variable(ptr noundef %39, ptr noundef %40, i32 noundef 0, ptr noundef %41)
  %42 = load ptr, ptr %10, align 8
  %43 = getelementptr inbounds nuw %struct.VariableStatData, ptr %42, i32 0, i32 1
  %44 = load ptr, ptr %43, align 8
  %45 = icmp ne ptr %44, null
  br i1 %45, label %46, label %58

46:                                               ; preds = %29
  %47 = load ptr, ptr %10, align 8
  %48 = getelementptr inbounds nuw %struct.VariableStatData, ptr %47, i32 0, i32 1
  %49 = load ptr, ptr %48, align 8
  %50 = getelementptr inbounds nuw %struct.RelOptInfo, ptr %49, i32 0, i32 2
  %51 = load ptr, ptr %50, align 8
  %52 = load ptr, ptr %9, align 8
  %53 = getelementptr inbounds nuw %struct.SpecialJoinInfo, ptr %52, i32 0, i32 4
  %54 = load ptr, ptr %53, align 8
  %55 = call zeroext i1 @bms_is_subset(ptr noundef %51, ptr noundef %54)
  br i1 %55, label %56, label %58

56:                                               ; preds = %46
  %57 = load ptr, ptr %12, align 8
  store i8 1, ptr %57, align 1
  br label %78

58:                                               ; preds = %46, %29
  %59 = load ptr, ptr %11, align 8
  %60 = getelementptr inbounds nuw %struct.VariableStatData, ptr %59, i32 0, i32 1
  %61 = load ptr, ptr %60, align 8
  %62 = icmp ne ptr %61, null
  br i1 %62, label %63, label %75

63:                                               ; preds = %58
  %64 = load ptr, ptr %11, align 8
  %65 = getelementptr inbounds nuw %struct.VariableStatData, ptr %64, i32 0, i32 1
  %66 = load ptr, ptr %65, align 8
  %67 = getelementptr inbounds nuw %struct.RelOptInfo, ptr %66, i32 0, i32 2
  %68 = load ptr, ptr %67, align 8
  %69 = load ptr, ptr %9, align 8
  %70 = getelementptr inbounds nuw %struct.SpecialJoinInfo, ptr %69, i32 0, i32 3
  %71 = load ptr, ptr %70, align 8
  %72 = call zeroext i1 @bms_is_subset(ptr noundef %68, ptr noundef %71)
  br i1 %72, label %73, label %75

73:                                               ; preds = %63
  %74 = load ptr, ptr %12, align 8
  store i8 1, ptr %74, align 1
  br label %77

75:                                               ; preds = %63, %58
  %76 = load ptr, ptr %12, align 8
  store i8 0, ptr %76, align 1
  br label %77

77:                                               ; preds = %75, %73
  br label %78

78:                                               ; preds = %77, %56
  call void @llvm.lifetime.end.p0(i64 8, ptr %14) #10
  call void @llvm.lifetime.end.p0(i64 8, ptr %13) #10
  ret void
}