; Function Attrs: nounwind uwtable
define dso_local void @get_join_variables(ptr noundef %0, ptr noundef readonly captures(address_is_null) %1, ptr noundef readonly captures(none) %2, ptr noundef %3, ptr noundef %4, ptr noundef writeonly captures(none) %5) local_unnamed_addr #0 {
  %.not.i = icmp eq ptr %1, null
  br i1 %.not.i, label %list_length.exit.thread, label %list_length.exit

list_length.exit:                                 ; preds = %6
  %7 = getelementptr inbounds nuw i8, ptr %1, i64 4
  %8 = load i32, ptr %7, align 4
  %.not = icmp eq i32 %8, 2
  br i1 %.not, label %11, label %list_length.exit.thread

list_length.exit.thread:                          ; preds = %6, %list_length.exit
  %9 = tail call zeroext i1 @errstart_cold(i32 noundef 21, ptr noundef null) #14
  tail call void @llvm.assume(i1 %9)
  %10 = tail call i32 (ptr, ...) @errmsg_internal(ptr noundef nonnull @.str.4) #12
  tail call void @errfinish(ptr noundef nonnull @.str.1, i32 noundef 4972, ptr noundef nonnull @__func__.get_join_variables) #12
  unreachable

11:                                               ; preds = %list_length.exit
  %12 = getelementptr i8, ptr %1, i64 16
  %.val21 = load ptr, ptr %12, align 8
  %13 = load ptr, ptr %.val21, align 8
  %14 = getelementptr inbounds nuw i8, ptr %.val21, i64 8
  %15 = load ptr, ptr %14, align 8
  tail call void @examine_variable(ptr noundef %0, ptr noundef %13, i32 noundef 0, ptr noundef %3)
  tail call void @examine_variable(ptr noundef %0, ptr noundef %15, i32 noundef 0, ptr noundef %4)
  %16 = getelementptr inbounds nuw i8, ptr %3, i64 8
  %17 = load ptr, ptr %16, align 8
  %.not19 = icmp eq ptr %17, null
  br i1 %.not19, label %24, label %18

18:                                               ; preds = %11
  %19 = getelementptr inbounds nuw i8, ptr %17, i64 8
  %20 = load ptr, ptr %19, align 8
  %21 = getelementptr inbounds nuw i8, ptr %2, i64 32
  %22 = load ptr, ptr %21, align 8
  %23 = tail call zeroext i1 @bms_is_subset(ptr noundef %20, ptr noundef %22) #12
  br i1 %23, label %34, label %24

24:                                               ; preds = %18, %11
  %25 = getelementptr inbounds nuw i8, ptr %4, i64 8
  %26 = load ptr, ptr %25, align 8
  %.not20 = icmp eq ptr %26, null
  br i1 %.not20, label %33, label %27

27:                                               ; preds = %24
  %28 = getelementptr inbounds nuw i8, ptr %26, i64 8
  %29 = load ptr, ptr %28, align 8
  %30 = getelementptr inbounds nuw i8, ptr %2, i64 24
  %31 = load ptr, ptr %30, align 8
  %32 = tail call zeroext i1 @bms_is_subset(ptr noundef %29, ptr noundef %31) #12
  br i1 %32, label %34, label %33

33:                                               ; preds = %27, %24
  br label %34

34:                                               ; preds = %27, %18, %33
  %.sink = phi i8 [ 0, %33 ], [ 1, %18 ], [ 1, %27 ]
  store i8 %.sink, ptr %5, align 1
  ret void
}